ccopy_reg
_reconstructor
p0
(csklearn.neighbors.classification
KNeighborsClassifier
p1
c__builtin__
object
p2
Ntp3
Rp4
(dp5
S'n_neighbors'
p6
(dp7
g6
I5
sS'weights'
p8
S'uniform'
p9
sS'leaf_size'
p10
I5
sS'algorithm'
p11
S'auto'
p12
ssS'n_jobs'
p13
I1
sg11
g12
sS'_sklearn_version'
p14
S'0.19.0'
p15
sS'metric'
p16
S'minkowski'
p17
sS'metric_params'
p18
NsS'p'
p19
I2
sS'radius'
p20
Nsg10
I30
sS'_fit_method'
p21
Nsg8
g9
sS'_tree'
p22
NsS'_fit_X'
p23
Nsb.